target datalayout = "e-m:e-p270:32:32-p271:32:32-p272:64:64-i64:64-i128:128-f80:128-n8:16:32:64-S128"
target triple = "x86_64-pc-linux-gnu"

%struct.slurm_msg = type { %struct.sockaddr_storage, ptr, i32, i32, i32, i8, i32, i8, i32, ptr, ptr, i32, ptr, ptr, i16, i8, i16, i16, %struct.forward, ptr, %struct.sockaddr_storage, ptr }
%struct.forward = type { %struct.slurm_node_alias_addrs_t, i16, i16, ptr, i32, i16, i16 }
%struct.slurm_node_alias_addrs_t = type { i64, ptr, ptr, i32, ptr }
%struct.sockaddr_storage = type { i16, [118 x i8], i64 }
%struct.part_info_request_msg = type { i64, i16 }
%struct.return_code_msg = type { i32 }

; Function Attrs: nounwind uwtable
define internal i32 @_load_cluster_parts(ptr noundef %0, ptr noundef %1, ptr noundef %2) #0 {
  %4 = alloca i32, align 4
  %5 = alloca ptr, align 8
  %6 = alloca ptr, align 8
  %7 = alloca ptr, align 8
  %8 = alloca %struct.slurm_msg, align 8
  %9 = alloca i32, align 4
  %10 = alloca i32, align 4
  store ptr %0, ptr %5, align 8
  store ptr %1, ptr %6, align 8
  store ptr %2, ptr %7, align 8
  call void @llvm.lifetime.start.p0(i64 424, ptr %8) #8
  call void @llvm.lifetime.start.p0(i64 4, ptr %9) #8
  call void @slurm_msg_t_init(ptr noundef %8)
  %11 = load ptr, ptr %5, align 8
  %12 = load ptr, ptr %7, align 8
  %13 = call i32 @slurm_send_recv_controller_msg(ptr noundef %11, ptr noundef %8, ptr noundef %12)
  %14 = icmp slt i32 %13, 0
  br i1 %14, label %15, label %16

15:                                               ; preds = %3
  store i32 -1, ptr %4, align 4
  store i32 1, ptr %10, align 4
  br label %50

16:                                               ; preds = %3
  %17 = getelementptr inbounds nuw %struct.slurm_msg, ptr %8, i32 0, i32 16
  %18 = load i16, ptr %17, align 4
  %19 = zext i16 %18 to i32
  switch i32 %19, label %44 [
    i32 2010, label %20
    i32 8001, label %24
  ]

20:                                               ; preds = %16
  %21 = getelementptr inbounds nuw %struct.slurm_msg, ptr %8, i32 0, i32 13
  %22 = load ptr, ptr %21, align 8
  %23 = load ptr, ptr %6, align 8
  store ptr %22, ptr %23, align 8
  br label %49

24:                                               ; preds = %16
  %25 = getelementptr inbounds nuw %struct.slurm_msg, ptr %8, i32 0, i32 13
  %26 = load ptr, ptr %25, align 8
  %27 = getelementptr inbounds nuw %struct.return_code_msg, ptr %26, i32 0, i32 0
  %28 = load i32, ptr %27, align 4
  store i32 %28, ptr %9, align 4
  %29 = getelementptr inbounds nuw %struct.slurm_msg, ptr %8, i32 0, i32 13
  %30 = load ptr, ptr %29, align 8
  call void @slurm_free_return_code_msg(ptr noundef %30)
  %31 = load i32, ptr %9, align 4
  %32 = icmp ne i32 %31, 0
  br i1 %32, label %33, label %42

33:                                               ; preds = %24
  br label %34

34:                                               ; preds = %33
  %35 = load i32, ptr %9, align 4
  %36 = call ptr @__errno_location() #9
  store i32 %35, ptr %36, align 4
  %37 = load i32, ptr %9, align 4
  %38 = icmp ne i32 %37, 0
  %39 = select i1 %38, i32 -1, i32 0
  store i32 %39, ptr %4, align 4
  store i32 1, ptr %10, align 4
  br label %50

40:                                               ; No predecessors!
  br label %41

41:                                               ; preds = %40
  br label %42

42:                                               ; preds = %41, %24
  %43 = load ptr, ptr %6, align 8
  store ptr null, ptr %43, align 8
  br label %49

44:                                               ; preds = %16
  br label %45

45:                                               ; preds = %44
  %46 = call ptr @__errno_location() #9
  store i32 1000, ptr %46, align 4
  store i32 -1, ptr %4, align 4
  store i32 1, ptr %10, align 4
  br label %50

47:                                               ; No predecessors!
  br label %48

48:                                               ; preds = %47
  br label %49

49:                                               ; preds = %48, %42, %20
  store i32 0, ptr %4, align 4
  store i32 1, ptr %10, align 4
  br label %50

50:                                               ; preds = %49, %45, %34, %15
  call void @llvm.lifetime.end.p0(i64 4, ptr %9) #8
  call void @llvm.lifetime.end.p0(i64 424, ptr %8) #8
  %51 = load i32, ptr %4, align 4
  ret i32 %51
}

; Function Attrs: nounwind uwtable
define dso_local i32 @slurm_load_partitions2(i64 noundef %0, ptr noundef %1, i16 noundef zeroext %2, ptr noundef %3) #0 {
  %5 = alloca i64, align 8
  %6 = alloca ptr, align 8
  %7 = alloca i16, align 2
  %8 = alloca ptr, align 8
  %9 = alloca %struct.slurm_msg, align 8
  %10 = alloca %struct.part_info_request_msg, align 8
  store i64 %0, ptr %5, align 8
  store ptr %1, ptr %6, align 8
  store i16 %2, ptr %7, align 2
  store ptr %3, ptr %8, align 8
  call void @llvm.lifetime.start.p0(i64 424, ptr %9) #8
  call void @llvm.lifetime.start.p0(i64 16, ptr %10) #8
  call void @slurm_msg_t_init(ptr noundef %9)
  call void @llvm.memset.p0.i64(ptr align 8 %10, i8 0, i64 16, i1 false)
  %11 = load i64, ptr %5, align 8
  %12 = getelementptr inbounds nuw %struct.part_info_request_msg, ptr %10, i32 0, i32 0
  store i64 %11, ptr %12, align 8
  %13 = load i16, ptr %7, align 2
  %14 = getelementptr inbounds nuw %struct.part_info_request_msg, ptr %10, i32 0, i32 1
  store i16 %13, ptr %14, align 8
  %15 = getelementptr inbounds nuw %struct.slurm_msg, ptr %9, i32 0, i32 16
  store i16 2009, ptr %15, align 4
  %16 = getelementptr inbounds nuw %struct.slurm_msg, ptr %9, i32 0, i32 13
  store ptr %10, ptr %16, align 8
  %17 = load ptr, ptr %6, align 8
  %18 = load ptr, ptr %8, align 8
  %19 = call i32 @_load_cluster_parts(ptr noundef %9, ptr noundef %17, ptr noundef %18)
  call void @llvm.lifetime.end.p0(i64 16, ptr %10) #8
  call void @llvm.lifetime.end.p0(i64 424, ptr %9) #8
  ret i32 %19
}