; Function Attrs: nounwind uwtable
define dso_local range(i32 -1, 1) i32 @slurm_load_partitions2(i64 noundef %0, ptr noundef writeonly captures(none) %1, i16 noundef zeroext %2, ptr noundef %3) local_unnamed_addr #0 {
  %5 = alloca %struct.slurm_msg, align 8
  %6 = alloca %struct.slurm_msg, align 8
  %7 = alloca %struct.part_info_request_msg, align 8
  call void @llvm.lifetime.start.p0(i64 424, ptr nonnull %6) #11
  call void @llvm.lifetime.start.p0(i64 16, ptr nonnull %7) #11
  call void @slurm_msg_t_init(ptr noundef nonnull %6) #11
  %8 = getelementptr inbounds nuw i8, ptr %7, i64 8
  store i64 0, ptr %8, align 8
  store i64 %0, ptr %7, align 8
  %9 = getelementptr inbounds nuw i8, ptr %7, i64 8
  store i16 %2, ptr %9, align 8
  %10 = getelementptr inbounds nuw i8, ptr %6, i64 212
  store i16 2009, ptr %10, align 4
  %11 = getelementptr inbounds nuw i8, ptr %6, i64 200
  store ptr %7, ptr %11, align 8
  call void @llvm.lifetime.start.p0(i64 424, ptr nonnull %5) #11
  call void @slurm_msg_t_init(ptr noundef nonnull %5) #11
  %12 = call i32 @slurm_send_recv_controller_msg(ptr noundef nonnull %6, ptr noundef nonnull %5, ptr noundef %3) #11
  %13 = icmp slt i32 %12, 0
  br i1 %13, label %_load_cluster_parts.exit, label %14

14:                                               ; preds = %4
  %15 = getelementptr inbounds nuw i8, ptr %5, i64 212
  %16 = load i16, ptr %15, align 4
  switch i16 %16, label %26 [
    i16 2010, label %17
    i16 8001, label %20
  ]

17:                                               ; preds = %14
  %18 = getelementptr inbounds nuw i8, ptr %5, i64 200
  %19 = load ptr, ptr %18, align 8
  br label %28

20:                                               ; preds = %14
  %21 = getelementptr inbounds nuw i8, ptr %5, i64 200
  %22 = load ptr, ptr %21, align 8
  %23 = load i32, ptr %22, align 4
  call void @slurm_free_return_code_msg(ptr noundef nonnull %22) #11
  %.not.i = icmp eq i32 %23, 0
  br i1 %.not.i, label %28, label %24

24:                                               ; preds = %20
  %25 = tail call ptr @__errno_location() #12
  store i32 %23, ptr %25, align 4
  br label %_load_cluster_parts.exit

26:                                               ; preds = %14
  %27 = tail call ptr @__errno_location() #12
  store i32 1000, ptr %27, align 4
  br label %_load_cluster_parts.exit

28:                                               ; preds = %20, %17
  %storemerge.i = phi ptr [ %19, %17 ], [ null, %20 ]
  store ptr %storemerge.i, ptr %1, align 8
  br label %_load_cluster_parts.exit

_load_cluster_parts.exit:                         ; preds = %4, %24, %26, %28
  %.0.i = phi i32 [ -1, %26 ], [ -1, %24 ], [ 0, %28 ], [ -1, %4 ]
  call void @llvm.lifetime.end.p0(i64 424, ptr nonnull %5) #11
  call void @llvm.lifetime.end.p0(i64 16, ptr nonnull %7) #11
  call void @llvm.lifetime.end.p0(i64 424, ptr nonnull %6) #11
  ret i32 %.0.i
}